target datalayout = "e-m:e-p270:32:32-p271:32:32-p272:64:64-i64:64-i128:128-f80:128-n8:16:32:64-S128"
target triple = "x86_64-pc-linux-gnu"

; Function Attrs: inlinehint nounwind uwtable
define internal ptr @ossl_check_const_PKCS12_SAFEBAG_sk_type(ptr noundef %0) #4 {
  %2 = alloca ptr, align 8
  store ptr %0, ptr %2, align 8, !tbaa !77
  %3 = load ptr, ptr %2, align 8, !tbaa !77
  ret ptr %3
}

; Function Attrs: nounwind uwtable
define dso_local i32 @dump_certs_pkeys_bags(ptr noundef %0, ptr noundef %1, ptr noundef %2, i32 noundef %3, i32 noundef %4, ptr noundef %5, ptr noundef %6) #0 {
  %8 = alloca i32, align 4
  %9 = alloca ptr, align 8
  %10 = alloca ptr, align 8
  %11 = alloca ptr, align 8
  %12 = alloca i32, align 4
  %13 = alloca i32, align 4
  %14 = alloca ptr, align 8
  %15 = alloca ptr, align 8
  %16 = alloca i32, align 4
  %17 = alloca i32, align 4
  store ptr %0, ptr %9, align 8, !tbaa !15
  store ptr %1, ptr %10, align 8, !tbaa !77
  store ptr %2, ptr %11, align 8, !tbaa !11
  store i32 %3, ptr %12, align 4, !tbaa !4
  store i32 %4, ptr %13, align 4, !tbaa !4
  store ptr %5, ptr %14, align 8, !tbaa !11
  store ptr %6, ptr %15, align 8, !tbaa !21
  call void @llvm.lifetime.start.p0(i64 4, ptr %16) #6
  store i32 0, ptr %16, align 4, !tbaa !4
  br label %18

18:                                               ; preds = %39, %7
  %19 = load i32, ptr %16, align 4, !tbaa !4
  %20 = load ptr, ptr %10, align 8, !tbaa !77
  %21 = call ptr @ossl_check_const_PKCS12_SAFEBAG_sk_type(ptr noundef %20)
  %22 = call i32 @OPENSSL_sk_num(ptr noundef %21)
  %23 = icmp slt i32 %19, %22
  br i1 %23, label %24, label %42

24:                                               ; preds = %18
  %25 = load ptr, ptr %9, align 8, !tbaa !15
  %26 = load ptr, ptr %10, align 8, !tbaa !77
  %27 = call ptr @ossl_check_const_PKCS12_SAFEBAG_sk_type(ptr noundef %26)
  %28 = load i32, ptr %16, align 4, !tbaa !4
  %29 = call ptr @OPENSSL_sk_value(ptr noundef %27, i32 noundef %28)
  %30 = load ptr, ptr %11, align 8, !tbaa !11
  %31 = load i32, ptr %12, align 4, !tbaa !4
  %32 = load i32, ptr %13, align 4, !tbaa !4
  %33 = load ptr, ptr %14, align 8, !tbaa !11
  %34 = load ptr, ptr %15, align 8, !tbaa !21
  %35 = call i32 @dump_certs_pkeys_bag(ptr noundef %25, ptr noundef %29, ptr noundef %30, i32 noundef %31, i32 noundef %32, ptr noundef %33, ptr noundef %34)
  %36 = icmp ne i32 %35, 0
  br i1 %36, label %38, label %37

37:                                               ; preds = %24
  store i32 0, ptr %8, align 4
  store i32 1, ptr %17, align 4
  br label %43

38:                                               ; preds = %24
  br label %39

39:                                               ; preds = %38
  %40 = load i32, ptr %16, align 4, !tbaa !4
  %41 = add nsw i32 %40, 1
  store i32 %41, ptr %16, align 4, !tbaa !4
  br label %18, !llvm.loop !102

42:                                               ; preds = %18
  store i32 1, ptr %8, align 4
  store i32 1, ptr %17, align 4
  br label %43

43:                                               ; preds = %42, %37
  call void @llvm.lifetime.end.p0(i64 4, ptr %16) #6
  %44 = load i32, ptr %8, align 4
  ret i32 %44
}