; Function Attrs: nounwind uwtable
define dso_local range(i32 0, 2) i32 @dump_certs_pkeys_bags(ptr noundef %0, ptr noundef %1, ptr noundef %2, i32 noundef %3, i32 noundef %4, ptr noundef %5, ptr noundef %6) local_unnamed_addr #0 {
  %8 = tail call i32 @OPENSSL_sk_num(ptr noundef %1) #6
  %9 = icmp sgt i32 %8, 0
  br i1 %9, label %.lr.ph, label %._crit_edge

10:                                               ; preds = %.lr.ph
  %11 = add nuw nsw i32 %.012, 1
  %12 = tail call i32 @OPENSSL_sk_num(ptr noundef %1) #6
  %13 = icmp slt i32 %11, %12
  br i1 %13, label %.lr.ph, label %._crit_edge, !llvm.loop !51

.lr.ph:                                           ; preds = %7, %10
  %.012 = phi i32 [ %11, %10 ], [ 0, %7 ]
  %14 = tail call ptr @OPENSSL_sk_value(ptr noundef %1, i32 noundef %.012) #6
  %15 = tail call i32 @dump_certs_pkeys_bag(ptr noundef %0, ptr noundef %14, ptr noundef %2, i32 noundef %3, i32 noundef %4, ptr noundef %5, ptr noundef %6)
  %.not = icmp eq i32 %15, 0
  br i1 %.not, label %._crit_edge, label %10

._crit_edge:                                      ; preds = %.lr.ph, %10, %7
  %.011 = phi i32 [ 1, %7 ], [ 1, %10 ], [ 0, %.lr.ph ]
  ret i32 %.011
}